target datalayout = "e-m:e-p270:32:32-p271:32:32-p272:64:64-i64:64-i128:128-f80:128-n8:16:32:64-S128"
target triple = "x86_64-pc-linux-gnu"

%"class.YAML::Emitter" = type { %"class.std::unique_ptr", %"class.YAML::ostream_wrapper" }
%"class.std::unique_ptr" = type { %"struct.std::__uniq_ptr_data" }
%"struct.std::__uniq_ptr_data" = type { %"class.std::__uniq_ptr_impl" }
%"class.std::__uniq_ptr_impl" = type { %"class.std::tuple" }
%"class.std::tuple" = type { %"struct.std::_Tuple_impl" }
%"struct.std::_Tuple_impl" = type { %"struct.std::_Head_base.1" }
%"struct.std::_Head_base.1" = type { ptr }
%"class.YAML::ostream_wrapper" = type <{ %"class.std::vector", ptr, i64, i64, i64, i8, [7 x i8] }>
%"class.std::vector" = type { %"struct.std::_Vector_base" }
%"struct.std::_Vector_base" = type { %"struct.std::_Vector_base<char, std::allocator<char>>::_Vector_impl" }
%"struct.std::_Vector_base<char, std::allocator<char>>::_Vector_impl" = type { %"struct.std::_Vector_base<char, std::allocator<char>>::_Vector_impl_data" }
%"struct.std::_Vector_base<char, std::allocator<char>>::_Vector_impl_data" = type { ptr, ptr, ptr }
%"class.YAML::EmitterState" = type { i8, %"class.std::__cxx11::basic_string", %"class.YAML::Setting", %"class.YAML::Setting", %"class.YAML::Setting", %"class.YAML::Setting", %"class.YAML::Setting", %"class.YAML::Setting", %"class.YAML::Setting", %"class.YAML::Setting.2", %"class.YAML::Setting.2", %"class.YAML::Setting.2", %"class.YAML::Setting", %"class.YAML::Setting", %"class.YAML::Setting", %"class.YAML::Setting.2", %"class.YAML::Setting.2", %"class.YAML::SettingChanges", %"class.YAML::SettingChanges", %"class.std::vector.8", i64, i8, i8, i8, i8, i64 }
%"class.std::__cxx11::basic_string" = type { %"struct.std::__cxx11::basic_string<char>::_Alloc_hider", i64, %union.anon }
%"struct.std::__cxx11::basic_string<char>::_Alloc_hider" = type { ptr }
%union.anon = type { i64, [8 x i8] }
%"class.YAML::Setting" = type { i32 }
%"class.YAML::Setting.2" = type { i64 }
%"class.YAML::SettingChanges" = type { %"class.std::vector.3" }
%"class.std::vector.3" = type { %"struct.std::_Vector_base.4" }
%"struct.std::_Vector_base.4" = type { %"struct.std::_Vector_base<std::unique_ptr<YAML::SettingChangeBase>, std::allocator<std::unique_ptr<YAML::SettingChangeBase>>>::_Vector_impl" }
%"struct.std::_Vector_base<std::unique_ptr<YAML::SettingChangeBase>, std::allocator<std::unique_ptr<YAML::SettingChangeBase>>>::_Vector_impl" = type { %"struct.std::_Vector_base<std::unique_ptr<YAML::SettingChangeBase>, std::allocator<std::unique_ptr<YAML::SettingChangeBase>>>::_Vector_impl_data" }
%"struct.std::_Vector_base<std::unique_ptr<YAML::SettingChangeBase>, std::allocator<std::unique_ptr<YAML::SettingChangeBase>>>::_Vector_impl_data" = type { ptr, ptr, ptr }
%"class.std::vector.8" = type { %"struct.std::_Vector_base.9" }
%"struct.std::_Vector_base.9" = type { %"struct.std::_Vector_base<std::unique_ptr<YAML::EmitterState::Group>, std::allocator<std::unique_ptr<YAML::EmitterState::Group>>>::_Vector_impl" }
%"struct.std::_Vector_base<std::unique_ptr<YAML::EmitterState::Group>, std::allocator<std::unique_ptr<YAML::EmitterState::Group>>>::_Vector_impl" = type { %"struct.std::_Vector_base<std::unique_ptr<YAML::EmitterState::Group>, std::allocator<std::unique_ptr<YAML::EmitterState::Group>>>::_Vector_impl_data" }
%"struct.std::_Vector_base<std::unique_ptr<YAML::EmitterState::Group>, std::allocator<std::unique_ptr<YAML::EmitterState::Group>>>::_Vector_impl_data" = type { ptr, ptr, ptr }

@.str.17 = private unnamed_addr constant [4 x i8] c"YES\00", align 1
@.str.18 = private unnamed_addr constant [3 x i8] c"NO\00", align 1
@.str.19 = private unnamed_addr constant [4 x i8] c"Yes\00", align 1
@.str.20 = private unnamed_addr constant [3 x i8] c"No\00", align 1
@.str.21 = private unnamed_addr constant [4 x i8] c"yes\00", align 1
@.str.22 = private unnamed_addr constant [3 x i8] c"no\00", align 1
@.str.23 = private unnamed_addr constant [3 x i8] c"ON\00", align 1
@.str.24 = private unnamed_addr constant [4 x i8] c"OFF\00", align 1
@.str.25 = private unnamed_addr constant [3 x i8] c"On\00", align 1
@.str.26 = private unnamed_addr constant [4 x i8] c"Off\00", align 1
@.str.27 = private unnamed_addr constant [3 x i8] c"on\00", align 1
@.str.28 = private unnamed_addr constant [4 x i8] c"off\00", align 1
@.str.29 = private unnamed_addr constant [5 x i8] c"TRUE\00", align 1
@.str.30 = private unnamed_addr constant [6 x i8] c"FALSE\00", align 1
@.str.31 = private unnamed_addr constant [5 x i8] c"True\00", align 1
@.str.32 = private unnamed_addr constant [6 x i8] c"False\00", align 1
@.str.33 = private unnamed_addr constant [5 x i8] c"true\00", align 1
@.str.34 = private unnamed_addr constant [6 x i8] c"false\00", align 1
@.str.35 = private unnamed_addr constant [2 x i8] c"y\00", align 1
@.str.36 = private unnamed_addr constant [2 x i8] c"n\00", align 1

; Function Attrs: mustprogress nounwind uwtable
define linkonce_odr noundef nonnull align 8 dereferenceable(8) ptr @_ZNSt10_Head_baseILm0EPN4YAML12EmitterStateELb0EE7_M_headERKS3_(ptr noundef nonnull align 8 dereferenceable(8) %0) #4 comdat align 2 {
  %2 = alloca ptr, align 8
  store ptr %0, ptr %2, align 8, !tbaa !167
  %3 = load ptr, ptr %2, align 8, !tbaa !167
  %4 = getelementptr inbounds nuw %"struct.std::_Head_base.1", ptr %3, i32 0, i32 0
  ret ptr %4
}

; Function Attrs: mustprogress nounwind uwtable
define linkonce_odr noundef nonnull align 8 dereferenceable(8) ptr @_ZNSt11_Tuple_implILm0EJPN4YAML12EmitterStateESt14default_deleteIS1_EEE7_M_headERKS5_(ptr noundef nonnull align 8 dereferenceable(8) %0) #4 comdat align 2 {
  %2 = alloca ptr, align 8
  store ptr %0, ptr %2, align 8, !tbaa !163
  %3 = load ptr, ptr %2, align 8, !tbaa !163
  %4 = call noundef nonnull align 8 dereferenceable(8) ptr @_ZNSt10_Head_baseILm0EPN4YAML12EmitterStateELb0EE7_M_headERKS3_(ptr noundef nonnull align 8 dereferenceable(8) %3) #14
  ret ptr %4
}

; Function Attrs: mustprogress nounwind uwtable
define linkonce_odr noundef nonnull align 8 dereferenceable(8) ptr @_ZSt12__get_helperILm0EPN4YAML12EmitterStateEJSt14default_deleteIS1_EEERKT0_RKSt11_Tuple_implIXT_EJS5_DpT1_EE(ptr noundef nonnull align 8 dereferenceable(8) %0) #4 comdat {
  %2 = alloca ptr, align 8
  store ptr %0, ptr %2, align 8, !tbaa !163
  %3 = load ptr, ptr %2, align 8, !tbaa !163
  %4 = call noundef nonnull align 8 dereferenceable(8) ptr @_ZNSt11_Tuple_implILm0EJPN4YAML12EmitterStateESt14default_deleteIS1_EEE7_M_headERKS5_(ptr noundef nonnull align 8 dereferenceable(8) %3) #14
  ret ptr %4
}

; Function Attrs: mustprogress nounwind uwtable
define linkonce_odr noundef nonnull align 8 dereferenceable(8) ptr @_ZSt3getILm0EJPN4YAML12EmitterStateESt14default_deleteIS1_EEERKNSt13tuple_elementIXT_ESt5tupleIJDpT0_EEE4typeERKS9_(ptr noundef nonnull align 8 dereferenceable(8) %0) #4 comdat {
  %2 = alloca ptr, align 8
  store ptr %0, ptr %2, align 8, !tbaa !161
  %3 = load ptr, ptr %2, align 8, !tbaa !161
  %4 = call noundef nonnull align 8 dereferenceable(8) ptr @_ZSt12__get_helperILm0EPN4YAML12EmitterStateEJSt14default_deleteIS1_EEERKT0_RKSt11_Tuple_implIXT_EJS5_DpT1_EE(ptr noundef nonnull align 8 dereferenceable(8) %3) #14
  ret ptr %4
}

; Function Attrs: mustprogress nounwind uwtable
define linkonce_odr noundef ptr @_ZNKSt15__uniq_ptr_implIN4YAML12EmitterStateESt14default_deleteIS1_EE6_M_ptrEv(ptr noundef nonnull align 8 dereferenceable(8) %0) #4 comdat align 2 {
  %2 = alloca ptr, align 8
  store ptr %0, ptr %2, align 8, !tbaa !159
  %3 = load ptr, ptr %2, align 8
  %4 = getelementptr inbounds nuw %"class.std::__uniq_ptr_impl", ptr %3, i32 0, i32 0
  %5 = call noundef nonnull align 8 dereferenceable(8) ptr @_ZSt3getILm0EJPN4YAML12EmitterStateESt14default_deleteIS1_EEERKNSt13tuple_elementIXT_ESt5tupleIJDpT0_EEE4typeERKS9_(ptr noundef nonnull align 8 dereferenceable(8) %4) #14
  %6 = load ptr, ptr %5, align 8, !tbaa !10
  ret ptr %6
}

; Function Attrs: mustprogress nounwind uwtable
define linkonce_odr noundef i32 @_ZNK4YAML7SettingINS_13EMITTER_MANIPEE3getEv(ptr noundef nonnull align 4 dereferenceable(4) %0) #4 comdat align 2 {
  %2 = alloca ptr, align 8
  store ptr %0, ptr %2, align 8, !tbaa !132
  %3 = load ptr, ptr %2, align 8
  %4 = getelementptr inbounds nuw %"class.YAML::Setting", ptr %3, i32 0, i32 0
  %5 = load i32, ptr %4, align 4, !tbaa !134
  ret i32 %5
}

; Function Attrs: mustprogress nounwind uwtable
define linkonce_odr noundef ptr @_ZNKSt10unique_ptrIN4YAML12EmitterStateESt14default_deleteIS1_EE3getEv(ptr noundef nonnull align 8 dereferenceable(8) %0) #4 comdat align 2 {
  %2 = alloca ptr, align 8
  store ptr %0, ptr %2, align 8, !tbaa !8
  %3 = load ptr, ptr %2, align 8
  %4 = getelementptr inbounds nuw %"class.std::unique_ptr", ptr %3, i32 0, i32 0
  %5 = call noundef ptr @_ZNKSt15__uniq_ptr_implIN4YAML12EmitterStateESt14default_deleteIS1_EE6_M_ptrEv(ptr noundef nonnull align 8 dereferenceable(8) %4) #14
  ret ptr %5
}

; Function Attrs: mustprogress nounwind uwtable
define linkonce_odr noundef i32 @_ZNK4YAML12EmitterState17GetBoolCaseFormatEv(ptr noundef nonnull align 8 dereferenceable(224) %0) #4 comdat align 2 {
  %2 = alloca ptr, align 8
  store ptr %0, ptr %2, align 8, !tbaa !10
  %3 = load ptr, ptr %2, align 8
  %4 = getelementptr inbounds nuw %"class.YAML::EmitterState", ptr %3, i32 0, i32 6
  %5 = call noundef i32 @_ZNK4YAML7SettingINS_13EMITTER_MANIPEE3getEv(ptr noundef nonnull align 4 dereferenceable(4) %4)
  ret i32 %5
}

; Function Attrs: mustprogress nounwind uwtable
define linkonce_odr noundef i32 @_ZNK4YAML12EmitterState13GetBoolFormatEv(ptr noundef nonnull align 8 dereferenceable(224) %0) #4 comdat align 2 {
  %2 = alloca ptr, align 8
  store ptr %0, ptr %2, align 8, !tbaa !10
  %3 = load ptr, ptr %2, align 8
  %4 = getelementptr inbounds nuw %"class.YAML::EmitterState", ptr %3, i32 0, i32 4
  %5 = call noundef i32 @_ZNK4YAML7SettingINS_13EMITTER_MANIPEE3getEv(ptr noundef nonnull align 4 dereferenceable(4) %4)
  ret i32 %5
}

; Function Attrs: mustprogress nounwind uwtable
define linkonce_odr noundef i32 @_ZNK4YAML12EmitterState19GetBoolLengthFormatEv(ptr noundef nonnull align 8 dereferenceable(224) %0) #4 comdat align 2 {
  %2 = alloca ptr, align 8
  store ptr %0, ptr %2, align 8, !tbaa !10
  %3 = load ptr, ptr %2, align 8
  %4 = getelementptr inbounds nuw %"class.YAML::EmitterState", ptr %3, i32 0, i32 5
  %5 = call noundef i32 @_ZNK4YAML7SettingINS_13EMITTER_MANIPEE3getEv(ptr noundef nonnull align 4 dereferenceable(4) %4)
  ret i32 %5
}

; Function Attrs: mustprogress nounwind uwtable
define linkonce_odr noundef ptr @_ZNKSt10unique_ptrIN4YAML12EmitterStateESt14default_deleteIS1_EEptEv(ptr noundef nonnull align 8 dereferenceable(8) %0) #4 comdat align 2 {
  %2 = alloca ptr, align 8
  store ptr %0, ptr %2, align 8, !tbaa !8
  %3 = load ptr, ptr %2, align 8
  %4 = call noundef ptr @_ZNKSt10unique_ptrIN4YAML12EmitterStateESt14default_deleteIS1_EE3getEv(ptr noundef nonnull align 8 dereferenceable(8) %3) #14
  ret ptr %4
}

; Function Attrs: mustprogress uwtable
define noundef ptr @_ZNK4YAML7Emitter19ComputeFullBoolNameEb(ptr noundef nonnull align 8 dereferenceable(72) %0, i1 noundef zeroext %1) #0 align 2 {
  %3 = alloca ptr, align 8
  %4 = alloca ptr, align 8
  %5 = alloca i8, align 1
  %6 = alloca i32, align 4
  %7 = alloca i32, align 4
  %8 = alloca i32, align 4
  store ptr %0, ptr %4, align 8, !tbaa !3
  %9 = zext i1 %1 to i8
  store i8 %9, ptr %5, align 1, !tbaa !51
  %10 = load ptr, ptr %4, align 8
  call void @llvm.lifetime.start.p0(i64 4, ptr %6) #14
  %11 = getelementptr inbounds nuw %"class.YAML::Emitter", ptr %10, i32 0, i32 0
  %12 = call noundef ptr @_ZNKSt10unique_ptrIN4YAML12EmitterStateESt14default_deleteIS1_EEptEv(ptr noundef nonnull align 8 dereferenceable(8) %11) #14
  %13 = call noundef i32 @_ZNK4YAML12EmitterState19GetBoolLengthFormatEv(ptr noundef nonnull align 8 dereferenceable(224) %12)
  %14 = icmp eq i32 %13, 20
  br i1 %14, label %15, label %16

15:                                               ; preds = %2
  br label %20

16:                                               ; preds = %2
  %17 = getelementptr inbounds nuw %"class.YAML::Emitter", ptr %10, i32 0, i32 0
  %18 = call noundef ptr @_ZNKSt10unique_ptrIN4YAML12EmitterStateESt14default_deleteIS1_EEptEv(ptr noundef nonnull align 8 dereferenceable(8) %17) #14
  %19 = call noundef i32 @_ZNK4YAML12EmitterState13GetBoolFormatEv(ptr noundef nonnull align 8 dereferenceable(224) %18)
  br label %20

20:                                               ; preds = %16, %15
  %21 = phi i32 [ 13, %15 ], [ %19, %16 ]
  store i32 %21, ptr %6, align 4, !tbaa !50
  call void @llvm.lifetime.start.p0(i64 4, ptr %7) #14
  %22 = getelementptr inbounds nuw %"class.YAML::Emitter", ptr %10, i32 0, i32 0
  %23 = call noundef ptr @_ZNKSt10unique_ptrIN4YAML12EmitterStateESt14default_deleteIS1_EEptEv(ptr noundef nonnull align 8 dereferenceable(8) %22) #14
  %24 = call noundef i32 @_ZNK4YAML12EmitterState17GetBoolCaseFormatEv(ptr noundef nonnull align 8 dereferenceable(224) %23)
  store i32 %24, ptr %7, align 4, !tbaa !50
  %25 = load i32, ptr %6, align 4, !tbaa !50
  switch i32 %25, label %74 [
    i32 13, label %26
    i32 15, label %42
    i32 14, label %58
  ]

26:                                               ; preds = %20
  %27 = load i32, ptr %7, align 4, !tbaa !50
  switch i32 %27, label %40 [
    i32 16, label %28
    i32 18, label %32
    i32 17, label %36
  ]

28:                                               ; preds = %26
  %29 = load i8, ptr %5, align 1, !tbaa !51, !range !48, !noundef !49
  %30 = trunc i8 %29 to i1
  %31 = select i1 %30, ptr @.str.17, ptr @.str.18
  store ptr %31, ptr %3, align 8
  store i32 1, ptr %8, align 4
  br label %83

32:                                               ; preds = %26
  %33 = load i8, ptr %5, align 1, !tbaa !51, !range !48, !noundef !49
  %34 = trunc i8 %33 to i1
  %35 = select i1 %34, ptr @.str.19, ptr @.str.20
  store ptr %35, ptr %3, align 8
  store i32 1, ptr %8, align 4
  br label %83

36:                                               ; preds = %26
  %37 = load i8, ptr %5, align 1, !tbaa !51, !range !48, !noundef !49
  %38 = trunc i8 %37 to i1
  %39 = select i1 %38, ptr @.str.21, ptr @.str.22
  store ptr %39, ptr %3, align 8
  store i32 1, ptr %8, align 4
  br label %83

40:                                               ; preds = %26
  br label %41

41:                                               ; preds = %40
  br label %75

42:                                               ; preds = %20
  %43 = load i32, ptr %7, align 4, !tbaa !50
  switch i32 %43, label %56 [
    i32 16, label %44
    i32 18, label %48
    i32 17, label %52
  ]

44:                                               ; preds = %42
  %45 = load i8, ptr %5, align 1, !tbaa !51, !range !48, !noundef !49
  %46 = trunc i8 %45 to i1
  %47 = select i1 %46, ptr @.str.23, ptr @.str.24
  store ptr %47, ptr %3, align 8
  store i32 1, ptr %8, align 4
  br label %83

48:                                               ; preds = %42
  %49 = load i8, ptr %5, align 1, !tbaa !51, !range !48, !noundef !49
  %50 = trunc i8 %49 to i1
  %51 = select i1 %50, ptr @.str.25, ptr @.str.26
  store ptr %51, ptr %3, align 8
  store i32 1, ptr %8, align 4
  br label %83

52:                                               ; preds = %42
  %53 = load i8, ptr %5, align 1, !tbaa !51, !range !48, !noundef !49
  %54 = trunc i8 %53 to i1
  %55 = select i1 %54, ptr @.str.27, ptr @.str.28
  store ptr %55, ptr %3, align 8
  store i32 1, ptr %8, align 4
  br label %83

56:                                               ; preds = %42
  br label %57

57:                                               ; preds = %56
  br label %75

58:                                               ; preds = %20
  %59 = load i32, ptr %7, align 4, !tbaa !50
  switch i32 %59, label %72 [
    i32 16, label %60
    i32 18, label %64
    i32 17, label %68
  ]

60:                                               ; preds = %58
  %61 = load i8, ptr %5, align 1, !tbaa !51, !range !48, !noundef !49
  %62 = trunc i8 %61 to i1
  %63 = select i1 %62, ptr @.str.29, ptr @.str.30
  store ptr %63, ptr %3, align 8
  store i32 1, ptr %8, align 4
  br label %83

64:                                               ; preds = %58
  %65 = load i8, ptr %5, align 1, !tbaa !51, !range !48, !noundef !49
  %66 = trunc i8 %65 to i1
  %67 = select i1 %66, ptr @.str.31, ptr @.str.32
  store ptr %67, ptr %3, align 8
  store i32 1, ptr %8, align 4
  br label %83

68:                                               ; preds = %58
  %69 = load i8, ptr %5, align 1, !tbaa !51, !range !48, !noundef !49
  %70 = trunc i8 %69 to i1
  %71 = select i1 %70, ptr @.str.33, ptr @.str.34
  store ptr %71, ptr %3, align 8
  store i32 1, ptr %8, align 4
  br label %83

72:                                               ; preds = %58
  br label %73

73:                                               ; preds = %72
  br label %75

74:                                               ; preds = %20
  br label %75

75:                                               ; preds = %74, %73, %57, %41
  %76 = load i8, ptr %5, align 1, !tbaa !51, !range !48, !noundef !49
  %77 = trunc i8 %76 to i1
  br i1 %77, label %78, label %79

78:                                               ; preds = %75
  br label %80

79:                                               ; preds = %75
  br label %80

80:                                               ; preds = %79, %78
  %81 = phi ptr [ @.str.35, %78 ], [ @.str.36, %79 ]
  %82 = getelementptr inbounds [2 x i8], ptr %81, i64 0, i64 0
  store ptr %82, ptr %3, align 8
  store i32 1, ptr %8, align 4
  br label %83

83:                                               ; preds = %80, %68, %64, %60, %52, %48, %44, %36, %32, %28
  call void @llvm.lifetime.end.p0(i64 4, ptr %7) #14
  call void @llvm.lifetime.end.p0(i64 4, ptr %6) #14
  %84 = load ptr, ptr %3, align 8
  ret ptr %84
}