; Function Attrs: mustprogress nofree norecurse nosync nounwind willreturn memory(read, inaccessiblemem: none) uwtable
define noundef nonnull ptr @_ZNK4YAML7Emitter19ComputeFullBoolNameEb(ptr noundef nonnull readonly align 8 captures(none) dereferenceable(72) %0, i1 noundef zeroext %1) local_unnamed_addr #8 align 2 {
  %3 = load ptr, ptr %0, align 8, !tbaa !3
  %4 = getelementptr inbounds nuw i8, ptr %3, i64 52
  %5 = load i32, ptr %4, align 4, !tbaa !65
  %6 = icmp eq i32 %5, 20
  br i1 %6, label %.thread, label %9

.thread:                                          ; preds = %2
  %7 = getelementptr inbounds nuw i8, ptr %3, i64 56
  %8 = load i32, ptr %7, align 4, !tbaa !65
  br label %14

9:                                                ; preds = %2
  %10 = getelementptr inbounds nuw i8, ptr %3, i64 48
  %11 = load i32, ptr %10, align 4, !tbaa !65
  %12 = getelementptr inbounds nuw i8, ptr %3, i64 56
  %13 = load i32, ptr %12, align 4, !tbaa !65
  switch i32 %11, label %36 [
    i32 13, label %14
    i32 15, label %22
    i32 14, label %29
  ]

14:                                               ; preds = %.thread, %9
  %15 = phi i32 [ %8, %.thread ], [ %13, %9 ]
  switch i32 %15, label %36 [
    i32 16, label %16
    i32 18, label %18
    i32 17, label %20
  ]

16:                                               ; preds = %14
  %17 = select i1 %1, ptr @.str.17, ptr @.str.18
  br label %37

18:                                               ; preds = %14
  %19 = select i1 %1, ptr @.str.19, ptr @.str.20
  br label %37

20:                                               ; preds = %14
  %21 = select i1 %1, ptr @.str.21, ptr @.str.22
  br label %37

22:                                               ; preds = %9
  switch i32 %13, label %36 [
    i32 16, label %23
    i32 18, label %25
    i32 17, label %27
  ]

23:                                               ; preds = %22
  %24 = select i1 %1, ptr @.str.23, ptr @.str.24
  br label %37

25:                                               ; preds = %22
  %26 = select i1 %1, ptr @.str.25, ptr @.str.26
  br label %37

27:                                               ; preds = %22
  %28 = select i1 %1, ptr @.str.27, ptr @.str.28
  br label %37

29:                                               ; preds = %9
  switch i32 %13, label %36 [
    i32 16, label %30
    i32 18, label %32
    i32 17, label %34
  ]

30:                                               ; preds = %29
  %31 = select i1 %1, ptr @.str.29, ptr @.str.30
  br label %37

32:                                               ; preds = %29
  %33 = select i1 %1, ptr @.str.31, ptr @.str.32
  br label %37

34:                                               ; preds = %29
  %35 = select i1 %1, ptr @.str.33, ptr @.str.34
  br label %37

36:                                               ; preds = %9, %29, %22, %14
  %.str.35..str.36 = select i1 %1, ptr @.str.35, ptr @.str.36
  br label %37

37:                                               ; preds = %36, %34, %32, %30, %27, %25, %23, %20, %18, %16
  %.0 = phi ptr [ %.str.35..str.36, %36 ], [ %35, %34 ], [ %33, %32 ], [ %31, %30 ], [ %28, %27 ], [ %26, %25 ], [ %24, %23 ], [ %21, %20 ], [ %19, %18 ], [ %17, %16 ]
  ret ptr %.0
}